target datalayout = "e-m:e-p270:32:32-p271:32:32-p272:64:64-i64:64-i128:128-f80:128-n8:16:32:64-S128"
target triple = "x86_64-pc-linux-gnu"

%"class.std::stack" = type { %"class.std::deque" }
%"class.std::deque" = type { %"class.std::_Deque_base" }
%"class.std::_Deque_base" = type { %"struct.std::_Deque_base<Json::Value *, std::allocator<Json::Value *>>::_Deque_impl" }
%"struct.std::_Deque_base<Json::Value *, std::allocator<Json::Value *>>::_Deque_impl" = type { %"struct.std::_Deque_base<Json::Value *, std::allocator<Json::Value *>>::_Deque_impl_data" }
%"struct.std::_Deque_base<Json::Value *, std::allocator<Json::Value *>>::_Deque_impl_data" = type { ptr, i64, %"struct.std::_Deque_iterator", %"struct.std::_Deque_iterator" }
%"struct.std::_Deque_iterator" = type { ptr, ptr, ptr, ptr }
%"class.std::__cxx11::basic_string" = type { %"struct.std::__cxx11::basic_string<char>::_Alloc_hider", i64, %union.anon }
%"struct.std::__cxx11::basic_string<char>::_Alloc_hider" = type { ptr }
%union.anon = type { i64, [8 x i8] }
%"class.Json::Value" = type { %"union.Json::Value::ValueHolder", %struct.anon, %"class.Json::Value::Comments", i64, i64 }
%"union.Json::Value::ValueHolder" = type { i64 }
%struct.anon = type { i16, [2 x i8] }
%"class.Json::Value::Comments" = type { %"class.std::unique_ptr" }
%"class.std::unique_ptr" = type { %"struct.std::__uniq_ptr_data" }
%"struct.std::__uniq_ptr_data" = type { %"class.std::__uniq_ptr_impl" }
%"class.std::__uniq_ptr_impl" = type { %"class.std::tuple" }
%"class.std::tuple" = type { %"struct.std::_Tuple_impl" }
%"struct.std::_Tuple_impl" = type { %"struct.std::_Head_base.10" }
%"struct.std::_Head_base.10" = type { ptr }
%"class.Json::OurFeatures" = type { i8, i8, i8, i8, i8, i8, i8, i8, i8, i8, i64 }
%"class.Json::OurReader" = type <{ %"class.std::stack", %"class.std::deque.17", %"class.std::__cxx11::basic_string", ptr, ptr, ptr, ptr, ptr, i8, [7 x i8], %"class.std::__cxx11::basic_string", %"class.Json::OurFeatures", i8, [7 x i8] }>
%"class.std::deque.17" = type { %"class.std::_Deque_base.18" }
%"class.std::_Deque_base.18" = type { %"struct.std::_Deque_base<Json::OurReader::ErrorInfo, std::allocator<Json::OurReader::ErrorInfo>>::_Deque_impl" }
%"struct.std::_Deque_base<Json::OurReader::ErrorInfo, std::allocator<Json::OurReader::ErrorInfo>>::_Deque_impl" = type { %"struct.std::_Deque_base<Json::OurReader::ErrorInfo, std::allocator<Json::OurReader::ErrorInfo>>::_Deque_impl_data" }
%"struct.std::_Deque_base<Json::OurReader::ErrorInfo, std::allocator<Json::OurReader::ErrorInfo>>::_Deque_impl_data" = type { ptr, i64, %"struct.std::_Deque_iterator.22", %"struct.std::_Deque_iterator.22" }
%"struct.std::_Deque_iterator.22" = type { ptr, ptr, ptr, ptr }
%"class.Json::CharReaderBuilder" = type { %"class.Json::CharReader::Factory", %"class.Json::Value" }
%"class.Json::CharReader::Factory" = type { ptr }
%"class.Json::OurCharReader" = type { %"class.Json::CharReader", i8, [7 x i8], %"class.Json::OurReader" }
%"class.Json::CharReader" = type { ptr }

@.str.30 = private unnamed_addr constant [16 x i8] c"collectComments\00", align 1
@.str.31 = private unnamed_addr constant [14 x i8] c"allowComments\00", align 1
@.str.32 = private unnamed_addr constant [20 x i8] c"allowTrailingCommas\00", align 1
@.str.33 = private unnamed_addr constant [11 x i8] c"strictRoot\00", align 1
@.str.34 = private unnamed_addr constant [29 x i8] c"allowDroppedNullPlaceholders\00", align 1
@.str.35 = private unnamed_addr constant [17 x i8] c"allowNumericKeys\00", align 1
@.str.36 = private unnamed_addr constant [18 x i8] c"allowSingleQuotes\00", align 1
@.str.37 = private unnamed_addr constant [11 x i8] c"stackLimit\00", align 1
@.str.38 = private unnamed_addr constant [12 x i8] c"failIfExtra\00", align 1
@.str.39 = private unnamed_addr constant [14 x i8] c"rejectDupKeys\00", align 1
@.str.40 = private unnamed_addr constant [19 x i8] c"allowSpecialFloats\00", align 1
@.str.41 = private unnamed_addr constant [8 x i8] c"skipBom\00", align 1
@_ZTVN4Json10CharReaderE = linkonce_odr dso_local unnamed_addr constant { [5 x ptr] } { [5 x ptr] [ptr null, ptr @_ZTIN4Json10CharReaderE, ptr @_ZN4Json10CharReaderD2Ev, ptr @_ZN4Json10CharReaderD0Ev, ptr @__cxa_pure_virtual] }, comdat, align 8
@_ZN4Json9OurReaderC1ERKNS_11OurFeaturesE = dso_local unnamed_addr alias void (ptr, ptr), ptr @_ZN4Json9OurReaderC2ERKNS_11OurFeaturesE

; Function Attrs: mustprogress nounwind uwtable
define linkonce_odr dso_local void @_ZN4Json10CharReaderD2Ev(ptr noundef nonnull align 8 dereferenceable(8) %0) unnamed_addr #4 comdat align 2 {
  %2 = alloca ptr, align 8
  store ptr %0, ptr %2, align 8
  ret void
}

; Function Attrs: mustprogress nounwind uwtable
define linkonce_odr dso_local void @_ZN4Json10CharReaderC2Ev(ptr noundef nonnull align 8 dereferenceable(8) %0) unnamed_addr #4 comdat align 2 {
  %2 = alloca ptr, align 8
  store ptr %0, ptr %2, align 8
  %3 = load ptr, ptr %2, align 8
  store ptr getelementptr inbounds ({ [5 x ptr] }, ptr @_ZTVN4Json10CharReaderE, i32 0, i32 0, i32 2), ptr %3, align 8
  ret void
}

; Function Attrs: mustprogress uwtable
define linkonce_odr dso_local void @_ZN4Json13OurCharReaderC2EbRKNS_11OurFeaturesE(ptr noundef nonnull align 8 dereferenceable(320) %0, i1 noundef zeroext %1, ptr noundef nonnull align 8 dereferenceable(24) %2) unnamed_addr #5 comdat align 2 personality ptr @__gxx_personality_v0 {
  %4 = alloca ptr, align 8
  %5 = alloca i8, align 1
  %6 = alloca ptr, align 8
  %7 = alloca ptr, align 8
  %8 = alloca i32, align 4
  store ptr %0, ptr %4, align 8
  %9 = zext i1 %1 to i8
  store i8 %9, ptr %5, align 1
  store ptr %2, ptr %6, align 8
  %10 = load ptr, ptr %4, align 8
  call void @_ZN4Json10CharReaderC2Ev(ptr noundef nonnull align 8 dereferenceable(8) %10) #3
  store ptr getelementptr inbounds ({ [5 x ptr] }, ptr @_ZTVN4Json13OurCharReaderE, i32 0, i32 0, i32 2), ptr %10, align 8
  %11 = getelementptr inbounds %"class.Json::OurCharReader", ptr %10, i32 0, i32 1
  %12 = load i8, ptr %5, align 1
  %13 = trunc i8 %12 to i1
  %14 = zext i1 %13 to i8
  store i8 %14, ptr %11, align 8
  %15 = getelementptr inbounds %"class.Json::OurCharReader", ptr %10, i32 0, i32 3
  %16 = load ptr, ptr %6, align 8
  invoke void @_ZN4Json9OurReaderC1ERKNS_11OurFeaturesE(ptr noundef nonnull align 8 dereferenceable(297) %15, ptr noundef nonnull align 8 dereferenceable(24) %16)
          to label %17 unwind label %18

17:                                               ; preds = %3
  ret void

18:                                               ; preds = %3
  %19 = landingpad { ptr, i32 }
          cleanup
  %20 = extractvalue { ptr, i32 } %19, 0
  store ptr %20, ptr %7, align 8
  %21 = extractvalue { ptr, i32 } %19, 1
  store i32 %21, ptr %8, align 4
  call void @_ZN4Json10CharReaderD2Ev(ptr noundef nonnull align 8 dereferenceable(8) %10) #3
  br label %22

22:                                               ; preds = %18
  %23 = load ptr, ptr %7, align 8
  %24 = load i32, ptr %8, align 4
  %25 = insertvalue { ptr, i32 } poison, ptr %23, 0
  %26 = insertvalue { ptr, i32 } %25, i32 %24, 1
  resume { ptr, i32 } %26
}

; Function Attrs: mustprogress nounwind uwtable
define dso_local void @_ZN4Json11OurFeatures3allEv(ptr dead_on_unwind noalias writable sret(%"class.Json::OurFeatures") align 8 %0) #4 align 2 {
  call void @llvm.memset.p0.i64(ptr align 8 %0, i8 0, i64 24, i1 false)
  ret void
}

; Function Attrs: mustprogress uwtable
define dso_local noundef ptr @_ZNK4Json17CharReaderBuilder13newCharReaderEv(ptr noundef nonnull align 8 dereferenceable(48) %0) unnamed_addr #5 align 2 personality ptr @__gxx_personality_v0 {
  %2 = alloca ptr, align 8
  %3 = alloca i8, align 1
  %4 = alloca %"class.Json::OurFeatures", align 8
  %5 = alloca ptr, align 8
  %6 = alloca i32, align 4
  store ptr %0, ptr %2, align 8
  %7 = load ptr, ptr %2, align 8
  %8 = getelementptr inbounds %"class.Json::CharReaderBuilder", ptr %7, i32 0, i32 1
  %9 = call noundef nonnull align 8 dereferenceable(40) ptr @_ZNK4Json5ValueixEPKc(ptr noundef nonnull align 8 dereferenceable(40) %8, ptr noundef @.str.30)
  %10 = call noundef zeroext i1 @_ZNK4Json5Value6asBoolEv(ptr noundef nonnull align 8 dereferenceable(40) %9)
  %11 = zext i1 %10 to i8
  store i8 %11, ptr %3, align 1
  call void @_ZN4Json11OurFeatures3allEv(ptr dead_on_unwind writable sret(%"class.Json::OurFeatures") align 8 %4)
  %12 = getelementptr inbounds %"class.Json::CharReaderBuilder", ptr %7, i32 0, i32 1
  %13 = call noundef nonnull align 8 dereferenceable(40) ptr @_ZNK4Json5ValueixEPKc(ptr noundef nonnull align 8 dereferenceable(40) %12, ptr noundef @.str.31)
  %14 = call noundef zeroext i1 @_ZNK4Json5Value6asBoolEv(ptr noundef nonnull align 8 dereferenceable(40) %13)
  %15 = getelementptr inbounds %"class.Json::OurFeatures", ptr %4, i32 0, i32 0
  %16 = zext i1 %14 to i8
  store i8 %16, ptr %15, align 8
  %17 = getelementptr inbounds %"class.Json::CharReaderBuilder", ptr %7, i32 0, i32 1
  %18 = call noundef nonnull align 8 dereferenceable(40) ptr @_ZNK4Json5ValueixEPKc(ptr noundef nonnull align 8 dereferenceable(40) %17, ptr noundef @.str.32)
  %19 = call noundef zeroext i1 @_ZNK4Json5Value6asBoolEv(ptr noundef nonnull align 8 dereferenceable(40) %18)
  %20 = getelementptr inbounds %"class.Json::OurFeatures", ptr %4, i32 0, i32 1
  %21 = zext i1 %19 to i8
  store i8 %21, ptr %20, align 1
  %22 = getelementptr inbounds %"class.Json::CharReaderBuilder", ptr %7, i32 0, i32 1
  %23 = call noundef nonnull align 8 dereferenceable(40) ptr @_ZNK4Json5ValueixEPKc(ptr noundef nonnull align 8 dereferenceable(40) %22, ptr noundef @.str.33)
  %24 = call noundef zeroext i1 @_ZNK4Json5Value6asBoolEv(ptr noundef nonnull align 8 dereferenceable(40) %23)
  %25 = getelementptr inbounds %"class.Json::OurFeatures", ptr %4, i32 0, i32 2
  %26 = zext i1 %24 to i8
  store i8 %26, ptr %25, align 2
  %27 = getelementptr inbounds %"class.Json::CharReaderBuilder", ptr %7, i32 0, i32 1
  %28 = call noundef nonnull align 8 dereferenceable(40) ptr @_ZNK4Json5ValueixEPKc(ptr noundef nonnull align 8 dereferenceable(40) %27, ptr noundef @.str.34)
  %29 = call noundef zeroext i1 @_ZNK4Json5Value6asBoolEv(ptr noundef nonnull align 8 dereferenceable(40) %28)
  %30 = getelementptr inbounds %"class.Json::OurFeatures", ptr %4, i32 0, i32 3
  %31 = zext i1 %29 to i8
  store i8 %31, ptr %30, align 1
  %32 = getelementptr inbounds %"class.Json::CharReaderBuilder", ptr %7, i32 0, i32 1
  %33 = call noundef nonnull align 8 dereferenceable(40) ptr @_ZNK4Json5ValueixEPKc(ptr noundef nonnull align 8 dereferenceable(40) %32, ptr noundef @.str.35)
  %34 = call noundef zeroext i1 @_ZNK4Json5Value6asBoolEv(ptr noundef nonnull align 8 dereferenceable(40) %33)
  %35 = getelementptr inbounds %"class.Json::OurFeatures", ptr %4, i32 0, i32 4
  %36 = zext i1 %34 to i8
  store i8 %36, ptr %35, align 4
  %37 = getelementptr inbounds %"class.Json::CharReaderBuilder", ptr %7, i32 0, i32 1
  %38 = call noundef nonnull align 8 dereferenceable(40) ptr @_ZNK4Json5ValueixEPKc(ptr noundef nonnull align 8 dereferenceable(40) %37, ptr noundef @.str.36)
  %39 = call noundef zeroext i1 @_ZNK4Json5Value6asBoolEv(ptr noundef nonnull align 8 dereferenceable(40) %38)
  %40 = getelementptr inbounds %"class.Json::OurFeatures", ptr %4, i32 0, i32 5
  %41 = zext i1 %39 to i8
  store i8 %41, ptr %40, align 1
  %42 = getelementptr inbounds %"class.Json::CharReaderBuilder", ptr %7, i32 0, i32 1
  %43 = call noundef nonnull align 8 dereferenceable(40) ptr @_ZNK4Json5ValueixEPKc(ptr noundef nonnull align 8 dereferenceable(40) %42, ptr noundef @.str.37)
  %44 = call noundef i32 @_ZNK4Json5Value6asUIntEv(ptr noundef nonnull align 8 dereferenceable(40) %43)
  %45 = zext i32 %44 to i64
  %46 = getelementptr inbounds %"class.Json::OurFeatures", ptr %4, i32 0, i32 10
  store i64 %45, ptr %46, align 8
  %47 = getelementptr inbounds %"class.Json::CharReaderBuilder", ptr %7, i32 0, i32 1
  %48 = call noundef nonnull align 8 dereferenceable(40) ptr @_ZNK4Json5ValueixEPKc(ptr noundef nonnull align 8 dereferenceable(40) %47, ptr noundef @.str.38)
  %49 = call noundef zeroext i1 @_ZNK4Json5Value6asBoolEv(ptr noundef nonnull align 8 dereferenceable(40) %48)
  %50 = getelementptr inbounds %"class.Json::OurFeatures", ptr %4, i32 0, i32 6
  %51 = zext i1 %49 to i8
  store i8 %51, ptr %50, align 2
  %52 = getelementptr inbounds %"class.Json::CharReaderBuilder", ptr %7, i32 0, i32 1
  %53 = call noundef nonnull align 8 dereferenceable(40) ptr @_ZNK4Json5ValueixEPKc(ptr noundef nonnull align 8 dereferenceable(40) %52, ptr noundef @.str.39)
  %54 = call noundef zeroext i1 @_ZNK4Json5Value6asBoolEv(ptr noundef nonnull align 8 dereferenceable(40) %53)
  %55 = getelementptr inbounds %"class.Json::OurFeatures", ptr %4, i32 0, i32 7
  %56 = zext i1 %54 to i8
  store i8 %56, ptr %55, align 1
  %57 = getelementptr inbounds %"class.Json::CharReaderBuilder", ptr %7, i32 0, i32 1
  %58 = call noundef nonnull align 8 dereferenceable(40) ptr @_ZNK4Json5ValueixEPKc(ptr noundef nonnull align 8 dereferenceable(40) %57, ptr noundef @.str.40)
  %59 = call noundef zeroext i1 @_ZNK4Json5Value6asBoolEv(ptr noundef nonnull align 8 dereferenceable(40) %58)
  %60 = getelementptr inbounds %"class.Json::OurFeatures", ptr %4, i32 0, i32 8
  %61 = zext i1 %59 to i8
  store i8 %61, ptr %60, align 8
  %62 = getelementptr inbounds %"class.Json::CharReaderBuilder", ptr %7, i32 0, i32 1
  %63 = call noundef nonnull align 8 dereferenceable(40) ptr @_ZNK4Json5ValueixEPKc(ptr noundef nonnull align 8 dereferenceable(40) %62, ptr noundef @.str.41)
  %64 = call noundef zeroext i1 @_ZNK4Json5Value6asBoolEv(ptr noundef nonnull align 8 dereferenceable(40) %63)
  %65 = getelementptr inbounds %"class.Json::OurFeatures", ptr %4, i32 0, i32 9
  %66 = zext i1 %64 to i8
  store i8 %66, ptr %65, align 1
  %67 = call noalias noundef nonnull ptr @_Znwm(i64 noundef 320) #19
  %68 = load i8, ptr %3, align 1
  %69 = trunc i8 %68 to i1
  invoke void @_ZN4Json13OurCharReaderC2EbRKNS_11OurFeaturesE(ptr noundef nonnull align 8 dereferenceable(320) %67, i1 noundef zeroext %69, ptr noundef nonnull align 8 dereferenceable(24) %4)
          to label %70 unwind label %71

70:                                               ; preds = %1
  ret ptr %67

71:                                               ; preds = %1
  %72 = landingpad { ptr, i32 }
          cleanup
  %73 = extractvalue { ptr, i32 } %72, 0
  store ptr %73, ptr %5, align 8
  %74 = extractvalue { ptr, i32 } %72, 1
  store i32 %74, ptr %6, align 4
  call void @_ZdlPv(ptr noundef %67) #18
  br label %75

75:                                               ; preds = %71
  %76 = load ptr, ptr %5, align 8
  %77 = load i32, ptr %6, align 4
  %78 = insertvalue { ptr, i32 } poison, ptr %76, 0
  %79 = insertvalue { ptr, i32 } %78, i32 %77, 1
  resume { ptr, i32 } %79
}