; Function Attrs: mustprogress uwtable
define dso_local noundef nonnull ptr @_ZNK4Json17CharReaderBuilder13newCharReaderEv(ptr noundef nonnull align 8 dereferenceable(48) %0) unnamed_addr #6 align 2 personality ptr @__gxx_personality_v0 {
  %2 = getelementptr inbounds i8, ptr %0, i64 8
  %3 = tail call noundef nonnull align 8 dereferenceable(40) ptr @_ZNK4Json5ValueixEPKc(ptr noundef nonnull align 8 dereferenceable(40) %2, ptr noundef nonnull @.str.30)
  %4 = tail call noundef zeroext i1 @_ZNK4Json5Value6asBoolEv(ptr noundef nonnull align 8 dereferenceable(40) %3)
  %5 = tail call noundef nonnull align 8 dereferenceable(40) ptr @_ZNK4Json5ValueixEPKc(ptr noundef nonnull align 8 dereferenceable(40) %2, ptr noundef nonnull @.str.31)
  %6 = tail call noundef zeroext i1 @_ZNK4Json5Value6asBoolEv(ptr noundef nonnull align 8 dereferenceable(40) %5)
  %7 = tail call noundef nonnull align 8 dereferenceable(40) ptr @_ZNK4Json5ValueixEPKc(ptr noundef nonnull align 8 dereferenceable(40) %2, ptr noundef nonnull @.str.32)
  %8 = tail call noundef zeroext i1 @_ZNK4Json5Value6asBoolEv(ptr noundef nonnull align 8 dereferenceable(40) %7)
  %9 = tail call noundef nonnull align 8 dereferenceable(40) ptr @_ZNK4Json5ValueixEPKc(ptr noundef nonnull align 8 dereferenceable(40) %2, ptr noundef nonnull @.str.33)
  %10 = tail call noundef zeroext i1 @_ZNK4Json5Value6asBoolEv(ptr noundef nonnull align 8 dereferenceable(40) %9)
  %11 = tail call noundef nonnull align 8 dereferenceable(40) ptr @_ZNK4Json5ValueixEPKc(ptr noundef nonnull align 8 dereferenceable(40) %2, ptr noundef nonnull @.str.34)
  %12 = tail call noundef zeroext i1 @_ZNK4Json5Value6asBoolEv(ptr noundef nonnull align 8 dereferenceable(40) %11)
  %13 = tail call noundef nonnull align 8 dereferenceable(40) ptr @_ZNK4Json5ValueixEPKc(ptr noundef nonnull align 8 dereferenceable(40) %2, ptr noundef nonnull @.str.35)
  %14 = tail call noundef zeroext i1 @_ZNK4Json5Value6asBoolEv(ptr noundef nonnull align 8 dereferenceable(40) %13)
  %15 = tail call noundef nonnull align 8 dereferenceable(40) ptr @_ZNK4Json5ValueixEPKc(ptr noundef nonnull align 8 dereferenceable(40) %2, ptr noundef nonnull @.str.36)
  %16 = tail call noundef zeroext i1 @_ZNK4Json5Value6asBoolEv(ptr noundef nonnull align 8 dereferenceable(40) %15)
  %17 = tail call noundef nonnull align 8 dereferenceable(40) ptr @_ZNK4Json5ValueixEPKc(ptr noundef nonnull align 8 dereferenceable(40) %2, ptr noundef nonnull @.str.37)
  %18 = tail call noundef i32 @_ZNK4Json5Value6asUIntEv(ptr noundef nonnull align 8 dereferenceable(40) %17)
  %19 = tail call noundef nonnull align 8 dereferenceable(40) ptr @_ZNK4Json5ValueixEPKc(ptr noundef nonnull align 8 dereferenceable(40) %2, ptr noundef nonnull @.str.38)
  %20 = tail call noundef zeroext i1 @_ZNK4Json5Value6asBoolEv(ptr noundef nonnull align 8 dereferenceable(40) %19)
  %21 = tail call noundef nonnull align 8 dereferenceable(40) ptr @_ZNK4Json5ValueixEPKc(ptr noundef nonnull align 8 dereferenceable(40) %2, ptr noundef nonnull @.str.39)
  %22 = tail call noundef zeroext i1 @_ZNK4Json5Value6asBoolEv(ptr noundef nonnull align 8 dereferenceable(40) %21)
  %23 = tail call noundef nonnull align 8 dereferenceable(40) ptr @_ZNK4Json5ValueixEPKc(ptr noundef nonnull align 8 dereferenceable(40) %2, ptr noundef nonnull @.str.40)
  %24 = tail call noundef zeroext i1 @_ZNK4Json5Value6asBoolEv(ptr noundef nonnull align 8 dereferenceable(40) %23)
  %25 = tail call noundef nonnull align 8 dereferenceable(40) ptr @_ZNK4Json5ValueixEPKc(ptr noundef nonnull align 8 dereferenceable(40) %2, ptr noundef nonnull @.str.41)
  %26 = tail call noundef zeroext i1 @_ZNK4Json5Value6asBoolEv(ptr noundef nonnull align 8 dereferenceable(40) %25)
  %27 = tail call noalias noundef nonnull dereferenceable(320) ptr @_Znwm(i64 noundef 320) #30
  %28 = zext i1 %4 to i8
  store ptr getelementptr inbounds ({ [5 x ptr] }, ptr @_ZTVN4Json13OurCharReaderE, i64 0, i32 0, i64 2), ptr %27, align 8
  %29 = getelementptr inbounds i8, ptr %27, i64 8
  store i8 %28, ptr %29, align 8
  %30 = getelementptr inbounds i8, ptr %27, i64 16
  tail call void @llvm.memset.p0.i64(ptr noundef nonnull align 8 dereferenceable(80) %30, i8 0, i64 80, i1 false)
  invoke void @_ZNSt11_Deque_baseIPN4Json5ValueESaIS2_EE17_M_initialize_mapEm(ptr noundef nonnull align 8 dereferenceable(80) %30, i64 noundef 0)
          to label %.noexc unwind label %51

.noexc:                                           ; preds = %1
  %31 = getelementptr inbounds i8, ptr %27, i64 96
  tail call void @llvm.memset.p0.i64(ptr noundef nonnull align 8 dereferenceable(80) %31, i8 0, i64 80, i1 false)
  invoke void @_ZNSt11_Deque_baseIN4Json9OurReader9ErrorInfoESaIS2_EE17_M_initialize_mapEm(ptr noundef nonnull align 8 dereferenceable(80) %31, i64 noundef 0)
          to label %33 unwind label %.body.i

.body.i:                                          ; preds = %.noexc
  %32 = landingpad { ptr, i32 }
          cleanup
  tail call void @_ZNSt5stackIPN4Json5ValueESt5dequeIS2_SaIS2_EEED2Ev(ptr noundef nonnull align 8 dereferenceable(80) %30) #25
  br label %.body

33:                                               ; preds = %.noexc
  %34 = zext i1 %26 to i8
  %35 = zext i1 %24 to i8
  %36 = insertelement <8 x i1> poison, i1 %6, i64 0
  %37 = insertelement <8 x i1> %36, i1 %8, i64 1
  %38 = insertelement <8 x i1> %37, i1 %10, i64 2
  %39 = insertelement <8 x i1> %38, i1 %12, i64 3
  %40 = insertelement <8 x i1> %39, i1 %14, i64 4
  %41 = insertelement <8 x i1> %40, i1 %16, i64 5
  %42 = insertelement <8 x i1> %41, i1 %20, i64 6
  %43 = insertelement <8 x i1> %42, i1 %22, i64 7
  %44 = zext <8 x i1> %43 to <8 x i8>
  %45 = zext i32 %18 to i64
  %46 = getelementptr inbounds i8, ptr %27, i64 176
  tail call void @_ZNSt7__cxx1112basic_stringIcSt11char_traitsIcESaIcEEC1Ev(ptr noundef nonnull align 8 dereferenceable(32) %46) #25
  %47 = getelementptr inbounds i8, ptr %27, i64 208
  %48 = getelementptr inbounds i8, ptr %27, i64 256
  tail call void @llvm.memset.p0.i64(ptr noundef nonnull align 8 dereferenceable(41) %47, i8 0, i64 41, i1 false)
  tail call void @_ZNSt7__cxx1112basic_stringIcSt11char_traitsIcESaIcEEC1Ev(ptr noundef nonnull align 8 dereferenceable(32) %48) #25
  %49 = getelementptr inbounds i8, ptr %27, i64 288
  store <8 x i8> %44, ptr %49, align 8
  %.sroa.10.0..sroa_idx = getelementptr inbounds i8, ptr %27, i64 296
  store i8 %35, ptr %.sroa.10.0..sroa_idx, align 8
  %.sroa.11.0..sroa_idx = getelementptr inbounds i8, ptr %27, i64 297
  store i8 %34, ptr %.sroa.11.0..sroa_idx, align 1
  %.sroa.12.0..sroa_idx = getelementptr inbounds i8, ptr %27, i64 298
  tail call void @llvm.memset.p0.i64(ptr noundef nonnull align 2 dereferenceable(6) %.sroa.12.0..sroa_idx, i8 0, i64 6, i1 false)
  %.sroa.123.0..sroa_idx = getelementptr inbounds i8, ptr %27, i64 304
  store i64 %45, ptr %.sroa.123.0..sroa_idx, align 8
  %50 = getelementptr inbounds i8, ptr %27, i64 312
  store i8 0, ptr %50, align 8
  ret ptr %27

51:                                               ; preds = %1
  %52 = landingpad { ptr, i32 }
          cleanup
  br label %.body

.body:                                            ; preds = %.body.i, %51
  %eh.lpad-body = phi { ptr, i32 } [ %52, %51 ], [ %32, %.body.i ]
  tail call void @_ZdlPv(ptr noundef nonnull %27) #26
  resume { ptr, i32 } %eh.lpad-body
}